; Function Attrs: nounwind uwtable
define noundef i32 @php_pcre2_pattern_info(ptr noundef %0, i32 noundef %1, ptr noundef writeonly %2) local_unnamed_addr #0 {
  %4 = icmp eq ptr %2, null
  %5 = icmp ult i32 %1, 27
  %or.cond = and i1 %4, %5
  br i1 %or.cond, label %switch.lookup, label %6

6:                                                ; preds = %3
  %7 = icmp eq ptr %0, null
  br i1 %7, label %123, label %8

8:                                                ; preds = %6
  %9 = getelementptr inbounds i8, ptr %0, i64 80
  %10 = load i32, ptr %9, align 8
  %.not = icmp eq i32 %10, 1346589253
  br i1 %.not, label %11, label %123

11:                                               ; preds = %8
  %12 = getelementptr inbounds i8, ptr %0, i64 96
  %13 = load i32, ptr %12, align 8
  %14 = and i32 %13, 1
  %15 = icmp eq i32 %14, 0
  br i1 %15, label %123, label %16

16:                                               ; preds = %11
  switch i32 %1, label %123 [
    i32 0, label %17
    i32 1, label %20
    i32 2, label %23
    i32 3, label %27
    i32 4, label %31
    i32 21, label %35
    i32 26, label %39
    i32 6, label %42
    i32 5, label %47
    i32 7, label %54
    i32 24, label %58
    i32 23, label %64
    i32 8, label %66
    i32 25, label %68
    i32 9, label %72
    i32 10, label %74
    i32 12, label %81
    i32 11, label %83
    i32 13, label %90
    i32 14, label %92
    i32 15, label %96
    i32 16, label %100
    i32 18, label %104
    i32 17, label %108
    i32 19, label %112
    i32 20, label %114
    i32 22, label %118
  ]

17:                                               ; preds = %16
  %18 = getelementptr inbounds i8, ptr %0, i64 88
  %19 = load i32, ptr %18, align 8
  store i32 %19, ptr %2, align 4
  br label %121

20:                                               ; preds = %16
  %21 = getelementptr inbounds i8, ptr %0, i64 84
  %22 = load i32, ptr %21, align 4
  store i32 %22, ptr %2, align 4
  br label %121

23:                                               ; preds = %16
  %24 = getelementptr inbounds i8, ptr %0, i64 130
  %25 = load i16, ptr %24, align 2
  %26 = zext i16 %25 to i32
  store i32 %26, ptr %2, align 4
  br label %121

27:                                               ; preds = %16
  %28 = getelementptr inbounds i8, ptr %0, i64 120
  %29 = load i16, ptr %28, align 8
  %30 = zext i16 %29 to i32
  store i32 %30, ptr %2, align 4
  br label %121

31:                                               ; preds = %16
  %32 = getelementptr inbounds i8, ptr %0, i64 128
  %33 = load i16, ptr %32, align 8
  %34 = zext i16 %33 to i32
  store i32 %34, ptr %2, align 4
  br label %121

35:                                               ; preds = %16
  %36 = getelementptr inbounds i8, ptr %0, i64 108
  %37 = load i32, ptr %36, align 4
  store i32 %37, ptr %2, align 4
  %38 = icmp eq i32 %37, -1
  br i1 %38, label %123, label %121

39:                                               ; preds = %16
  %40 = getelementptr inbounds i8, ptr %0, i64 92
  %41 = load i32, ptr %40, align 4
  store i32 %41, ptr %2, align 4
  br label %121

42:                                               ; preds = %16
  %43 = and i32 %13, 16
  %.not80 = icmp eq i32 %43, 0
  %44 = lshr i32 %13, 8
  %45 = and i32 %44, 2
  %46 = select i1 %.not80, i32 %45, i32 1
  store i32 %46, ptr %2, align 4
  br label %121

47:                                               ; preds = %16
  %48 = and i32 %13, 16
  %.not79 = icmp eq i32 %48, 0
  br i1 %.not79, label %52, label %49

49:                                               ; preds = %47
  %50 = getelementptr inbounds i8, ptr %0, i64 112
  %51 = load i32, ptr %50, align 8
  br label %52

52:                                               ; preds = %47, %49
  %53 = phi i32 [ %51, %49 ], [ 0, %47 ]
  store i32 %53, ptr %2, align 4
  br label %121

54:                                               ; preds = %16
  %55 = and i32 %13, 64
  %.not78 = icmp eq i32 %55, 0
  %56 = getelementptr inbounds i8, ptr %0, i64 40
  %57 = select i1 %.not78, ptr null, ptr %56
  store ptr %57, ptr %2, align 8
  br label %121

58:                                               ; preds = %16
  %59 = getelementptr inbounds i8, ptr %0, i64 128
  %60 = load i16, ptr %59, align 8
  %61 = zext i16 %60 to i64
  %62 = shl nuw nsw i64 %61, 4
  %63 = add nuw nsw i64 %62, 136
  store i64 %63, ptr %2, align 8
  br label %121

64:                                               ; preds = %16
  %65 = lshr i32 %13, 22
  %.lobit77 = and i32 %65, 1
  store i32 %.lobit77, ptr %2, align 4
  br label %121

66:                                               ; preds = %16
  %67 = lshr i32 %13, 11
  %.lobit76 = and i32 %67, 1
  store i32 %.lobit76, ptr %2, align 4
  br label %121

68:                                               ; preds = %16
  %69 = getelementptr inbounds i8, ptr %0, i64 100
  %70 = load i32, ptr %69, align 4
  store i32 %70, ptr %2, align 4
  %71 = icmp eq i32 %70, -1
  br i1 %71, label %123, label %121

72:                                               ; preds = %16
  %73 = lshr i32 %13, 10
  %.lobit75 = and i32 %73, 1
  store i32 %.lobit75, ptr %2, align 4
  br label %121

74:                                               ; preds = %16
  %75 = getelementptr inbounds i8, ptr %0, i64 32
  %76 = load ptr, ptr %75, align 8
  %.not74 = icmp eq ptr %76, null
  br i1 %.not74, label %79, label %77

77:                                               ; preds = %74
  %78 = tail call i64 @_pcre2_jit_get_size_8(ptr noundef nonnull %76) #3
  br label %79

79:                                               ; preds = %74, %77
  %80 = phi i64 [ %78, %77 ], [ 0, %74 ]
  store i64 %80, ptr %2, align 8
  br label %121

81:                                               ; preds = %16
  %82 = lshr i32 %13, 7
  %.lobit73 = and i32 %82, 1
  store i32 %.lobit73, ptr %2, align 4
  br label %121

83:                                               ; preds = %16
  %84 = and i32 %13, 128
  %.not71 = icmp eq i32 %84, 0
  br i1 %.not71, label %88, label %85

85:                                               ; preds = %83
  %86 = getelementptr inbounds i8, ptr %0, i64 116
  %87 = load i32, ptr %86, align 4
  br label %88

88:                                               ; preds = %83, %85
  %89 = phi i32 [ %87, %85 ], [ 0, %83 ]
  store i32 %89, ptr %2, align 4
  br label %121

90:                                               ; preds = %16
  %91 = lshr i32 %13, 13
  %.lobit = and i32 %91, 1
  store i32 %.lobit, ptr %2, align 4
  br label %121

92:                                               ; preds = %16
  %93 = getelementptr inbounds i8, ptr %0, i64 104
  %94 = load i32, ptr %93, align 8
  store i32 %94, ptr %2, align 4
  %95 = icmp eq i32 %94, -1
  br i1 %95, label %123, label %121

96:                                               ; preds = %16
  %97 = getelementptr inbounds i8, ptr %0, i64 124
  %98 = load i16, ptr %97, align 4
  %99 = zext i16 %98 to i32
  store i32 %99, ptr %2, align 4
  br label %121

100:                                              ; preds = %16
  %101 = getelementptr inbounds i8, ptr %0, i64 126
  %102 = load i16, ptr %101, align 2
  %103 = zext i16 %102 to i32
  store i32 %103, ptr %2, align 4
  br label %121

104:                                              ; preds = %16
  %105 = getelementptr inbounds i8, ptr %0, i64 132
  %106 = load i16, ptr %105, align 4
  %107 = zext i16 %106 to i32
  store i32 %107, ptr %2, align 4
  br label %121

108:                                              ; preds = %16
  %109 = getelementptr inbounds i8, ptr %0, i64 134
  %110 = load i16, ptr %109, align 2
  %111 = zext i16 %110 to i32
  store i32 %111, ptr %2, align 4
  br label %121

112:                                              ; preds = %16
  %113 = getelementptr inbounds i8, ptr %0, i64 136
  store ptr %113, ptr %2, align 8
  br label %121

114:                                              ; preds = %16
  %115 = getelementptr inbounds i8, ptr %0, i64 122
  %116 = load i16, ptr %115, align 2
  %117 = zext i16 %116 to i32
  store i32 %117, ptr %2, align 4
  br label %121

118:                                              ; preds = %16
  %119 = getelementptr inbounds i8, ptr %0, i64 72
  %120 = load i64, ptr %119, align 8
  store i64 %120, ptr %2, align 8
  br label %121

121:                                              ; preds = %92, %68, %35, %118, %114, %112, %108, %104, %100, %96, %90, %88, %81, %79, %72, %66, %64, %58, %54, %52, %42, %39, %31, %27, %23, %20, %17
  br label %123

switch.lookup:                                    ; preds = %3
  %122 = zext nneg i32 %1 to i64
  %switch.gep = getelementptr inbounds [27 x i32], ptr @switch.table.php_pcre2_pattern_info, i64 0, i64 %122
  %switch.load = load i32, ptr %switch.gep, align 4
  br label %123

123:                                              ; preds = %switch.lookup, %16, %92, %68, %35, %11, %8, %6, %121
  %.0 = phi i32 [ 0, %121 ], [ -51, %6 ], [ -31, %8 ], [ -32, %11 ], [ -55, %35 ], [ -55, %68 ], [ -55, %92 ], [ -34, %16 ], [ %switch.load, %switch.lookup ]
  ret i32 %.0
}